target datalayout = "e-m:e-p270:32:32-p271:32:32-p272:64:64-i64:64-i128:128-f80:128-n8:16:32:64-S128"
target triple = "x86_64-pc-linux-gnu"

%class.nmethod = type <{ %class.CodeBlob.base, [2 x i8], i64, i64, ptr, %union.anon.0, ptr, ptr, ptr, ptr, ptr, ptr, ptr, i16, i16, i32, i32, i32, i32, i32, i32, i32, i16, i16, i16, i16, i16, i16, i32, i32, i32, i32, i32, i8, i8, i8, i8, i8, i8, [2 x i8] }>
%class.CodeBlob.base = type <{ ptr, ptr, ptr, i32, i32, i32, i32, i32, i32, i16, i16, i8, i8 }>
%union.anon.0 = type { ptr }
%class.CodeBlob = type <{ ptr, ptr, ptr, i32, i32, i32, i32, i32, i32, i16, i16, i8, i8, [2 x i8] }>

; Function Attrs: mustprogress nounwind uwtable
define linkonce_odr hidden noundef zeroext i1 @_ZNK8CodeBlob10is_nmethodEv(ptr noundef nonnull align 8 dereferenceable(54) %0) #1 comdat align 2 {
  %2 = alloca ptr, align 8
  store ptr %0, ptr %2, align 8
  %3 = load ptr, ptr %2, align 8
  %4 = getelementptr inbounds %class.CodeBlob, ptr %3, i32 0, i32 11
  %5 = load i8, ptr %4, align 4
  %6 = icmp eq i8 %5, 1
  ret i1 %6
}

; Function Attrs: mustprogress nounwind uwtable
define linkonce_odr hidden noundef zeroext i1 @_ZNK7nmethod14is_not_entrantEv(ptr noundef nonnull align 8 dereferenceable(214) %0) #1 comdat align 2 {
  %2 = alloca ptr, align 8
  store ptr %0, ptr %2, align 8
  %3 = load ptr, ptr %2, align 8
  %4 = getelementptr inbounds %class.nmethod, ptr %3, i32 0, i32 36
  %5 = load volatile i8, ptr %4, align 1
  %6 = sext i8 %5 to i32
  %7 = icmp eq i32 %6, 1
  ret i1 %7
}

; Function Attrs: mustprogress nounwind uwtable
define linkonce_odr hidden noundef zeroext i1 @_ZNK7nmethod9is_in_useEv(ptr noundef nonnull align 8 dereferenceable(214) %0) #1 comdat align 2 {
  %2 = alloca ptr, align 8
  store ptr %0, ptr %2, align 8
  %3 = load ptr, ptr %2, align 8
  %4 = getelementptr inbounds %class.nmethod, ptr %3, i32 0, i32 36
  %5 = load volatile i8, ptr %4, align 1
  %6 = sext i8 %5 to i32
  %7 = icmp sle i32 %6, 0
  ret i1 %7
}

; Function Attrs: mustprogress nounwind uwtable
define linkonce_odr hidden noundef ptr @_ZN8CodeBlob18as_nmethod_or_nullEv(ptr noundef nonnull align 8 dereferenceable(54) %0) #1 comdat align 2 {
  %2 = alloca ptr, align 8
  store ptr %0, ptr %2, align 8
  %3 = load ptr, ptr %2, align 8
  %4 = call noundef zeroext i1 @_ZNK8CodeBlob10is_nmethodEv(ptr noundef nonnull align 8 dereferenceable(54) %3)
  br i1 %4, label %5, label %6

5:                                                ; preds = %1
  br label %7

6:                                                ; preds = %1
  br label %7

7:                                                ; preds = %6, %5
  %8 = phi ptr [ %3, %5 ], [ null, %6 ]
  ret ptr %8
}

; Function Attrs: mustprogress nounwind uwtable
define linkonce_odr hidden noundef zeroext i1 @_ZNK8CodeBlob14is_buffer_blobEv(ptr noundef nonnull align 8 dereferenceable(54) %0) #1 comdat align 2 {
  %2 = alloca ptr, align 8
  store ptr %0, ptr %2, align 8
  %3 = load ptr, ptr %2, align 8
  %4 = getelementptr inbounds %class.CodeBlob, ptr %3, i32 0, i32 11
  %5 = load i8, ptr %4, align 4
  %6 = icmp eq i8 %5, 2
  ret i1 %6
}

; Function Attrs: mustprogress nounwind uwtable
define linkonce_odr hidden noundef zeroext i1 @_ZNK8CodeBlob30is_method_handles_adapter_blobEv(ptr noundef nonnull align 8 dereferenceable(54) %0) #1 comdat align 2 {
  %2 = alloca ptr, align 8
  store ptr %0, ptr %2, align 8
  %3 = load ptr, ptr %2, align 8
  %4 = getelementptr inbounds %class.CodeBlob, ptr %3, i32 0, i32 11
  %5 = load i8, ptr %4, align 4
  %6 = icmp eq i8 %5, 5
  ret i1 %6
}

; Function Attrs: mustprogress nounwind uwtable
define linkonce_odr hidden noundef zeroext i1 @_ZNK8CodeBlob15is_adapter_blobEv(ptr noundef nonnull align 8 dereferenceable(54) %0) #1 comdat align 2 {
  %2 = alloca ptr, align 8
  store ptr %0, ptr %2, align 8
  %3 = load ptr, ptr %2, align 8
  %4 = getelementptr inbounds %class.CodeBlob, ptr %3, i32 0, i32 11
  %5 = load i8, ptr %4, align 4
  %6 = icmp eq i8 %5, 3
  ret i1 %6
}

; Function Attrs: mustprogress nounwind uwtable
define linkonce_odr hidden noundef zeroext i1 @_ZNK8CodeBlob17is_safepoint_stubEv(ptr noundef nonnull align 8 dereferenceable(54) %0) #1 comdat align 2 {
  %2 = alloca ptr, align 8
  store ptr %0, ptr %2, align 8
  %3 = load ptr, ptr %2, align 8
  %4 = getelementptr inbounds %class.CodeBlob, ptr %3, i32 0, i32 11
  %5 = load i8, ptr %4, align 4
  %6 = icmp eq i8 %5, 9
  ret i1 %6
}

; Function Attrs: mustprogress nounwind uwtable
define linkonce_odr hidden noundef zeroext i1 @_ZNK8CodeBlob17is_exception_stubEv(ptr noundef nonnull align 8 dereferenceable(54) %0) #1 comdat align 2 {
  %2 = alloca ptr, align 8
  store ptr %0, ptr %2, align 8
  %3 = load ptr, ptr %2, align 8
  %4 = getelementptr inbounds %class.CodeBlob, ptr %3, i32 0, i32 11
  %5 = load i8, ptr %4, align 4
  %6 = icmp eq i8 %5, 8
  ret i1 %6
}

; Function Attrs: mustprogress nounwind uwtable
define linkonce_odr hidden noundef zeroext i1 @_ZNK8CodeBlob21is_uncommon_trap_stubEv(ptr noundef nonnull align 8 dereferenceable(54) %0) #1 comdat align 2 {
  %2 = alloca ptr, align 8
  store ptr %0, ptr %2, align 8
  %3 = load ptr, ptr %2, align 8
  %4 = getelementptr inbounds %class.CodeBlob, ptr %3, i32 0, i32 11
  %5 = load i8, ptr %4, align 4
  %6 = icmp eq i8 %5, 10
  ret i1 %6
}

; Function Attrs: mustprogress nounwind uwtable
define linkonce_odr hidden noundef zeroext i1 @_ZNK8CodeBlob22is_deoptimization_stubEv(ptr noundef nonnull align 8 dereferenceable(54) %0) #1 comdat align 2 {
  %2 = alloca ptr, align 8
  store ptr %0, ptr %2, align 8
  %3 = load ptr, ptr %2, align 8
  %4 = getelementptr inbounds %class.CodeBlob, ptr %3, i32 0, i32 11
  %5 = load i8, ptr %4, align 4
  %6 = icmp eq i8 %5, 7
  ret i1 %6
}

; Function Attrs: mustprogress nounwind uwtable
define linkonce_odr hidden noundef zeroext i1 @_ZNK8CodeBlob15is_runtime_stubEv(ptr noundef nonnull align 8 dereferenceable(54) %0) #1 comdat align 2 {
  %2 = alloca ptr, align 8
  store ptr %0, ptr %2, align 8
  %3 = load ptr, ptr %2, align 8
  %4 = getelementptr inbounds %class.CodeBlob, ptr %3, i32 0, i32 11
  %5 = load i8, ptr %4, align 4
  %6 = icmp eq i8 %5, 6
  ret i1 %6
}

; Function Attrs: mustprogress nounwind uwtable
define hidden noundef i32 @_ZN13CodeHeapState10get_cbTypeEP8CodeBlob(ptr noundef %0) #1 align 2 {
  %2 = alloca i32, align 4
  %3 = alloca ptr, align 8
  %4 = alloca ptr, align 8
  store ptr %0, ptr %3, align 8
  %5 = load ptr, ptr %3, align 8
  %6 = icmp ne ptr %5, null
  br i1 %6, label %7, label %57

7:                                                ; preds = %1
  %8 = load ptr, ptr %3, align 8
  %9 = call noundef zeroext i1 @_ZNK8CodeBlob15is_runtime_stubEv(ptr noundef nonnull align 8 dereferenceable(54) %8)
  br i1 %9, label %10, label %11

10:                                               ; preds = %7
  store i32 5, ptr %2, align 4
  br label %58

11:                                               ; preds = %7
  %12 = load ptr, ptr %3, align 8
  %13 = call noundef zeroext i1 @_ZNK8CodeBlob22is_deoptimization_stubEv(ptr noundef nonnull align 8 dereferenceable(54) %12)
  br i1 %13, label %14, label %15

14:                                               ; preds = %11
  store i32 7, ptr %2, align 4
  br label %58

15:                                               ; preds = %11
  %16 = load ptr, ptr %3, align 8
  %17 = call noundef zeroext i1 @_ZNK8CodeBlob21is_uncommon_trap_stubEv(ptr noundef nonnull align 8 dereferenceable(54) %16)
  br i1 %17, label %18, label %19

18:                                               ; preds = %15
  store i32 8, ptr %2, align 4
  br label %58

19:                                               ; preds = %15
  %20 = load ptr, ptr %3, align 8
  %21 = call noundef zeroext i1 @_ZNK8CodeBlob17is_exception_stubEv(ptr noundef nonnull align 8 dereferenceable(54) %20)
  br i1 %21, label %22, label %23

22:                                               ; preds = %19
  store i32 9, ptr %2, align 4
  br label %58

23:                                               ; preds = %19
  %24 = load ptr, ptr %3, align 8
  %25 = call noundef zeroext i1 @_ZNK8CodeBlob17is_safepoint_stubEv(ptr noundef nonnull align 8 dereferenceable(54) %24)
  br i1 %25, label %26, label %27

26:                                               ; preds = %23
  store i32 10, ptr %2, align 4
  br label %58

27:                                               ; preds = %23
  %28 = load ptr, ptr %3, align 8
  %29 = call noundef zeroext i1 @_ZNK8CodeBlob15is_adapter_blobEv(ptr noundef nonnull align 8 dereferenceable(54) %28)
  br i1 %29, label %30, label %31

30:                                               ; preds = %27
  store i32 11, ptr %2, align 4
  br label %58

31:                                               ; preds = %27
  %32 = load ptr, ptr %3, align 8
  %33 = call noundef zeroext i1 @_ZNK8CodeBlob30is_method_handles_adapter_blobEv(ptr noundef nonnull align 8 dereferenceable(54) %32)
  br i1 %33, label %34, label %35

34:                                               ; preds = %31
  store i32 12, ptr %2, align 4
  br label %58

35:                                               ; preds = %31
  %36 = load ptr, ptr %3, align 8
  %37 = call noundef zeroext i1 @_ZNK8CodeBlob14is_buffer_blobEv(ptr noundef nonnull align 8 dereferenceable(54) %36)
  br i1 %37, label %38, label %39

38:                                               ; preds = %35
  store i32 13, ptr %2, align 4
  br label %58

39:                                               ; preds = %35
  %40 = call noundef zeroext i1 @_ZN13CodeHeapState22holding_required_locksEv()
  br i1 %40, label %41, label %56

41:                                               ; preds = %39
  %42 = load ptr, ptr %3, align 8
  %43 = call noundef ptr @_ZN8CodeBlob18as_nmethod_or_nullEv(ptr noundef nonnull align 8 dereferenceable(54) %42)
  store ptr %43, ptr %4, align 8
  %44 = load ptr, ptr %4, align 8
  %45 = icmp ne ptr %44, null
  br i1 %45, label %46, label %55

46:                                               ; preds = %41
  %47 = load ptr, ptr %4, align 8
  %48 = call noundef zeroext i1 @_ZNK7nmethod9is_in_useEv(ptr noundef nonnull align 8 dereferenceable(214) %47)
  br i1 %48, label %49, label %50

49:                                               ; preds = %46
  store i32 2, ptr %2, align 4
  br label %58

50:                                               ; preds = %46
  %51 = load ptr, ptr %4, align 8
  %52 = call noundef zeroext i1 @_ZNK7nmethod14is_not_entrantEv(ptr noundef nonnull align 8 dereferenceable(214) %51)
  br i1 %52, label %54, label %53

53:                                               ; preds = %50
  store i32 3, ptr %2, align 4
  br label %58

54:                                               ; preds = %50
  store i32 4, ptr %2, align 4
  br label %58

55:                                               ; preds = %41
  br label %56

56:                                               ; preds = %55, %39
  br label %57

57:                                               ; preds = %56, %1
  store i32 0, ptr %2, align 4
  br label %58

58:                                               ; preds = %57, %54, %53, %49, %38, %34, %30, %26, %22, %18, %14, %10
  %59 = load i32, ptr %2, align 4
  ret i32 %59
}