; Function Attrs: mustprogress nounwind uwtable
define hidden noundef range(i32 0, 14) i32 @_ZN13CodeHeapState10get_cbTypeEP8CodeBlob(ptr noundef %0) local_unnamed_addr #1 align 2 {
  %.not = icmp eq ptr %0, null
  br i1 %.not, label %18, label %2

2:                                                ; preds = %1
  %3 = getelementptr inbounds i8, ptr %0, i64 52
  %4 = load i8, ptr %3, align 4
  %switch.tableidx = add i8 %4, -2
  %5 = icmp ult i8 %switch.tableidx, 9
  br i1 %5, label %switch.hole_check, label %6

6:                                                ; preds = %switch.hole_check, %2
  %7 = tail call noundef zeroext i1 @_ZN13CodeHeapState22holding_required_locksEv()
  br i1 %7, label %8, label %18

8:                                                ; preds = %6
  %9 = load i8, ptr %3, align 4
  %.not23 = icmp eq i8 %9, 1
  br i1 %.not23, label %10, label %18

10:                                               ; preds = %8
  %11 = getelementptr inbounds i8, ptr %0, i64 211
  %12 = load volatile i8, ptr %11, align 1
  %13 = icmp slt i8 %12, 1
  br i1 %13, label %18, label %14

14:                                               ; preds = %10
  %15 = load volatile i8, ptr %11, align 1
  %16 = icmp eq i8 %15, 1
  %. = select i1 %16, i32 4, i32 3
  br label %18

switch.hole_check:                                ; preds = %2
  %switch.maskindex = zext nneg i8 %switch.tableidx to i16
  %switch.shifted = lshr i16 507, %switch.maskindex
  %switch.lobit = trunc i16 %switch.shifted to i1
  br i1 %switch.lobit, label %switch.lookup, label %6

switch.lookup:                                    ; preds = %switch.hole_check
  %17 = zext nneg i8 %switch.tableidx to i64
  %switch.gep = getelementptr inbounds [9 x i32], ptr @switch.table._ZN13CodeHeapState11print_namesEP12outputStreamP8CodeHeap, i64 0, i64 %17
  %switch.load = load i32, ptr %switch.gep, align 4
  br label %18

18:                                               ; preds = %switch.lookup, %1, %8, %6, %14, %10
  %.0 = phi i32 [ 2, %10 ], [ %., %14 ], [ 0, %6 ], [ 0, %8 ], [ 0, %1 ], [ %switch.load, %switch.lookup ]
  ret i32 %.0
}